target datalayout = "e-m:e-p270:32:32-p271:32:32-p272:64:64-i64:64-i128:128-f80:128-n8:16:32:64-S128"
target triple = "x86_64-pc-linux-gnu"

%struct.archive_write_filter = type { i64, ptr, ptr, ptr, ptr, ptr, ptr, ptr, ptr, ptr, ptr, i32, i32, i32, i32 }
%struct.archive_write_program_data = type { i32, i32, i32, ptr, i64, i64, ptr }

@.str.5 = private unnamed_addr constant [31 x i8] c"Error reading from program: %s\00", align 1
@.str.6 = private unnamed_addr constant [26 x i8] c"Error closing program: %s\00", align 1

; Function Attrs: nounwind uwtable
define dso_local i32 @__archive_write_program_close(ptr noundef %0, ptr noundef %1) #0 {
  %3 = alloca i32, align 4
  %4 = alloca ptr, align 8
  %5 = alloca ptr, align 8
  %6 = alloca i32, align 4
  %7 = alloca i32, align 4
  %8 = alloca i64, align 8
  store ptr %0, ptr %4, align 8
  store ptr %1, ptr %5, align 8
  %9 = load ptr, ptr %5, align 8
  %10 = getelementptr inbounds %struct.archive_write_program_data, ptr %9, i32 0, i32 0
  %11 = load i32, ptr %10, align 8
  %12 = icmp eq i32 %11, 0
  br i1 %12, label %13, label %14

13:                                               ; preds = %2
  store i32 0, ptr %3, align 4
  br label %148

14:                                               ; preds = %2
  store i32 0, ptr %6, align 4
  %15 = load ptr, ptr %5, align 8
  %16 = getelementptr inbounds %struct.archive_write_program_data, ptr %15, i32 0, i32 1
  %17 = load i32, ptr %16, align 4
  %18 = call i32 @close(i32 noundef %17)
  %19 = load ptr, ptr %5, align 8
  %20 = getelementptr inbounds %struct.archive_write_program_data, ptr %19, i32 0, i32 1
  store i32 -1, ptr %20, align 4
  %21 = load ptr, ptr %5, align 8
  %22 = getelementptr inbounds %struct.archive_write_program_data, ptr %21, i32 0, i32 2
  %23 = load i32, ptr %22, align 8
  %24 = call i32 (i32, i32, ...) @fcntl(i32 noundef %23, i32 noundef 4, i32 noundef 0)
  br label %25

25:                                               ; preds = %96, %14
  br label %26

26:                                               ; preds = %52, %25
  %27 = load ptr, ptr %5, align 8
  %28 = getelementptr inbounds %struct.archive_write_program_data, ptr %27, i32 0, i32 2
  %29 = load i32, ptr %28, align 8
  %30 = load ptr, ptr %5, align 8
  %31 = getelementptr inbounds %struct.archive_write_program_data, ptr %30, i32 0, i32 3
  %32 = load ptr, ptr %31, align 8
  %33 = load ptr, ptr %5, align 8
  %34 = getelementptr inbounds %struct.archive_write_program_data, ptr %33, i32 0, i32 5
  %35 = load i64, ptr %34, align 8
  %36 = getelementptr inbounds i8, ptr %32, i64 %35
  %37 = load ptr, ptr %5, align 8
  %38 = getelementptr inbounds %struct.archive_write_program_data, ptr %37, i32 0, i32 4
  %39 = load i64, ptr %38, align 8
  %40 = load ptr, ptr %5, align 8
  %41 = getelementptr inbounds %struct.archive_write_program_data, ptr %40, i32 0, i32 5
  %42 = load i64, ptr %41, align 8
  %43 = sub i64 %39, %42
  %44 = call i64 @read(i32 noundef %29, ptr noundef %36, i64 noundef %43)
  store i64 %44, ptr %8, align 8
  br label %45

45:                                               ; preds = %26
  %46 = load i64, ptr %8, align 8
  %47 = icmp eq i64 %46, -1
  br i1 %47, label %48, label %52

48:                                               ; preds = %45
  %49 = call ptr @__errno_location() #11
  %50 = load i32, ptr %49, align 4
  %51 = icmp eq i32 %50, 4
  br label %52

52:                                               ; preds = %48, %45
  %53 = phi i1 [ false, %45 ], [ %51, %48 ]
  br i1 %53, label %26, label %54, !llvm.loop !9

54:                                               ; preds = %52
  %55 = load i64, ptr %8, align 8
  %56 = icmp eq i64 %55, 0
  br i1 %56, label %64, label %57

57:                                               ; preds = %54
  %58 = load i64, ptr %8, align 8
  %59 = icmp eq i64 %58, -1
  br i1 %59, label %60, label %65

60:                                               ; preds = %57
  %61 = call ptr @__errno_location() #11
  %62 = load i32, ptr %61, align 4
  %63 = icmp eq i32 %62, 32
  br i1 %63, label %64, label %65

64:                                               ; preds = %60, %54
  br label %99

65:                                               ; preds = %60, %57
  %66 = load i64, ptr %8, align 8
  %67 = icmp eq i64 %66, -1
  br i1 %67, label %68, label %77

68:                                               ; preds = %65
  %69 = load ptr, ptr %4, align 8
  %70 = getelementptr inbounds %struct.archive_write_filter, ptr %69, i32 0, i32 1
  %71 = load ptr, ptr %70, align 8
  %72 = call ptr @__errno_location() #11
  %73 = load i32, ptr %72, align 4
  %74 = load ptr, ptr %5, align 8
  %75 = getelementptr inbounds %struct.archive_write_program_data, ptr %74, i32 0, i32 6
  %76 = load ptr, ptr %75, align 8
  call void (ptr, i32, ptr, ...) @archive_set_error(ptr noundef %71, i32 noundef %73, ptr noundef @.str.5, ptr noundef %76)
  store i32 -30, ptr %6, align 4
  br label %100

77:                                               ; preds = %65
  %78 = load i64, ptr %8, align 8
  %79 = load ptr, ptr %5, align 8
  %80 = getelementptr inbounds %struct.archive_write_program_data, ptr %79, i32 0, i32 5
  %81 = load i64, ptr %80, align 8
  %82 = add i64 %81, %78
  store i64 %82, ptr %80, align 8
  %83 = load ptr, ptr %4, align 8
  %84 = getelementptr inbounds %struct.archive_write_filter, ptr %83, i32 0, i32 2
  %85 = load ptr, ptr %84, align 8
  %86 = load ptr, ptr %5, align 8
  %87 = getelementptr inbounds %struct.archive_write_program_data, ptr %86, i32 0, i32 3
  %88 = load ptr, ptr %87, align 8
  %89 = load ptr, ptr %5, align 8
  %90 = getelementptr inbounds %struct.archive_write_program_data, ptr %89, i32 0, i32 5
  %91 = load i64, ptr %90, align 8
  %92 = call i32 @__archive_write_filter(ptr noundef %85, ptr noundef %88, i64 noundef %91)
  store i32 %92, ptr %6, align 4
  %93 = load i32, ptr %6, align 4
  %94 = icmp ne i32 %93, 0
  br i1 %94, label %95, label %96

95:                                               ; preds = %77
  store i32 -30, ptr %6, align 4
  br label %100

96:                                               ; preds = %77
  %97 = load ptr, ptr %5, align 8
  %98 = getelementptr inbounds %struct.archive_write_program_data, ptr %97, i32 0, i32 5
  store i64 0, ptr %98, align 8
  br label %25

99:                                               ; preds = %64
  br label %100

100:                                              ; preds = %99, %95, %68
  %101 = load ptr, ptr %5, align 8
  %102 = getelementptr inbounds %struct.archive_write_program_data, ptr %101, i32 0, i32 1
  %103 = load i32, ptr %102, align 4
  %104 = icmp ne i32 %103, -1
  br i1 %104, label %105, label %110

105:                                              ; preds = %100
  %106 = load ptr, ptr %5, align 8
  %107 = getelementptr inbounds %struct.archive_write_program_data, ptr %106, i32 0, i32 1
  %108 = load i32, ptr %107, align 4
  %109 = call i32 @close(i32 noundef %108)
  br label %110

110:                                              ; preds = %105, %100
  %111 = load ptr, ptr %5, align 8
  %112 = getelementptr inbounds %struct.archive_write_program_data, ptr %111, i32 0, i32 2
  %113 = load i32, ptr %112, align 8
  %114 = icmp ne i32 %113, -1
  br i1 %114, label %115, label %120

115:                                              ; preds = %110
  %116 = load ptr, ptr %5, align 8
  %117 = getelementptr inbounds %struct.archive_write_program_data, ptr %116, i32 0, i32 2
  %118 = load i32, ptr %117, align 8
  %119 = call i32 @close(i32 noundef %118)
  br label %120

120:                                              ; preds = %115, %110
  br label %121

121:                                              ; preds = %133, %120
  %122 = load ptr, ptr %5, align 8
  %123 = getelementptr inbounds %struct.archive_write_program_data, ptr %122, i32 0, i32 0
  %124 = load i32, ptr %123, align 8
  %125 = call i32 @waitpid(i32 noundef %124, ptr noundef %7, i32 noundef 0)
  %126 = icmp eq i32 %125, -1
  br i1 %126, label %127, label %131

127:                                              ; preds = %121
  %128 = call ptr @__errno_location() #11
  %129 = load i32, ptr %128, align 4
  %130 = icmp eq i32 %129, 4
  br label %131

131:                                              ; preds = %127, %121
  %132 = phi i1 [ false, %121 ], [ %130, %127 ]
  br i1 %132, label %133, label %134

133:                                              ; preds = %131
  br label %121, !llvm.loop !10

134:                                              ; preds = %131
  %135 = load ptr, ptr %5, align 8
  %136 = getelementptr inbounds %struct.archive_write_program_data, ptr %135, i32 0, i32 0
  store i32 0, ptr %136, align 8
  %137 = load i32, ptr %7, align 4
  %138 = icmp ne i32 %137, 0
  br i1 %138, label %139, label %146

139:                                              ; preds = %134
  %140 = load ptr, ptr %4, align 8
  %141 = getelementptr inbounds %struct.archive_write_filter, ptr %140, i32 0, i32 1
  %142 = load ptr, ptr %141, align 8
  %143 = load ptr, ptr %5, align 8
  %144 = getelementptr inbounds %struct.archive_write_program_data, ptr %143, i32 0, i32 6
  %145 = load ptr, ptr %144, align 8
  call void (ptr, i32, ptr, ...) @archive_set_error(ptr noundef %142, i32 noundef 5, ptr noundef @.str.6, ptr noundef %145)
  store i32 -30, ptr %6, align 4
  br label %146

146:                                              ; preds = %139, %134
  %147 = load i32, ptr %6, align 4
  store i32 %147, ptr %3, align 4
  br label %148

148:                                              ; preds = %146, %13
  %149 = load i32, ptr %3, align 4
  ret i32 %149
}