; Function Attrs: nounwind uwtable
define dso_local range(i32 -30, 1) i32 @__archive_write_program_close(ptr noundef readonly captures(none) %0, ptr noundef captures(none) %1) local_unnamed_addr #0 {
  %3 = alloca i32, align 4
  %4 = load i32, ptr %1, align 8
  %5 = icmp eq i32 %4, 0
  br i1 %5, label %60, label %6

6:                                                ; preds = %2
  %7 = getelementptr inbounds nuw i8, ptr %1, i64 4
  %8 = load i32, ptr %7, align 4
  %9 = tail call i32 @close(i32 noundef %8) #11
  store i32 -1, ptr %7, align 4
  %10 = getelementptr inbounds nuw i8, ptr %1, i64 8
  %11 = load i32, ptr %10, align 8
  %12 = tail call i32 (i32, i32, ...) @fcntl(i32 noundef %11, i32 noundef 4, i32 noundef 0) #11
  %13 = getelementptr inbounds nuw i8, ptr %1, i64 16
  %14 = getelementptr inbounds nuw i8, ptr %1, i64 32
  %15 = getelementptr inbounds nuw i8, ptr %1, i64 24
  %16 = getelementptr inbounds nuw i8, ptr %0, i64 16
  br label %17

17:                                               ; preds = %.backedge, %6
  %18 = load i32, ptr %10, align 8
  %19 = load ptr, ptr %13, align 8
  %20 = load i64, ptr %14, align 8
  %21 = getelementptr inbounds i8, ptr %19, i64 %20
  %22 = load i64, ptr %15, align 8
  %23 = sub i64 %22, %20
  %24 = tail call i64 @read(i32 noundef %18, ptr noundef %21, i64 noundef %23) #11
  switch i64 %24, label %.critedge42 [
    i64 -1, label %25
    i64 0, label %.loopexit
  ]

25:                                               ; preds = %17
  %26 = tail call ptr @__errno_location() #15
  %27 = load i32, ptr %26, align 4
  switch i32 %27, label %28 [
    i32 4, label %.backedge
    i32 32, label %.loopexit
  ]

28:                                               ; preds = %25
  %29 = getelementptr inbounds nuw i8, ptr %0, i64 8
  %30 = load ptr, ptr %29, align 8
  %31 = getelementptr inbounds nuw i8, ptr %1, i64 40
  %32 = load ptr, ptr %31, align 8
  tail call void (ptr, i32, ptr, ...) @archive_set_error(ptr noundef %30, i32 noundef %27, ptr noundef nonnull @.str.5, ptr noundef %32) #11
  br label %.loopexit

.critedge42:                                      ; preds = %17
  %33 = load i64, ptr %14, align 8
  %34 = add i64 %33, %24
  store i64 %34, ptr %14, align 8
  %35 = load ptr, ptr %16, align 8
  %36 = load ptr, ptr %13, align 8
  %37 = tail call i32 @__archive_write_filter(ptr noundef %35, ptr noundef %36, i64 noundef %34) #11
  %.not = icmp eq i32 %37, 0
  br i1 %.not, label %38, label %.loopexit

38:                                               ; preds = %.critedge42
  store i64 0, ptr %14, align 8
  br label %.backedge

.backedge:                                        ; preds = %38, %25
  br label %17

.loopexit:                                        ; preds = %.critedge42, %17, %25, %28
  %.1 = phi i32 [ -30, %28 ], [ -30, %.critedge42 ], [ 0, %17 ], [ 0, %25 ]
  %39 = load i32, ptr %7, align 4
  %.not38 = icmp eq i32 %39, -1
  br i1 %.not38, label %42, label %40

40:                                               ; preds = %.loopexit
  %41 = tail call i32 @close(i32 noundef %39) #11
  br label %42

42:                                               ; preds = %40, %.loopexit
  %43 = load i32, ptr %10, align 8
  %.not39 = icmp eq i32 %43, -1
  br i1 %.not39, label %.preheader, label %44

44:                                               ; preds = %42
  %45 = tail call i32 @close(i32 noundef %43) #11
  br label %.preheader

.preheader:                                       ; preds = %44, %42
  br label %46

46:                                               ; preds = %.preheader, %50
  %47 = load i32, ptr %1, align 8
  %48 = call i32 @waitpid(i32 noundef %47, ptr noundef nonnull %3, i32 noundef 0) #11
  %49 = icmp eq i32 %48, -1
  br i1 %49, label %50, label %.critedge2

50:                                               ; preds = %46
  %51 = tail call ptr @__errno_location() #15
  %52 = load i32, ptr %51, align 4
  %53 = icmp eq i32 %52, 4
  br i1 %53, label %46, label %.critedge2, !llvm.loop !7

.critedge2:                                       ; preds = %46, %50
  store i32 0, ptr %1, align 8
  %54 = load i32, ptr %3, align 4
  %.not40 = icmp eq i32 %54, 0
  br i1 %.not40, label %60, label %55

55:                                               ; preds = %.critedge2
  %56 = getelementptr inbounds nuw i8, ptr %0, i64 8
  %57 = load ptr, ptr %56, align 8
  %58 = getelementptr inbounds nuw i8, ptr %1, i64 40
  %59 = load ptr, ptr %58, align 8
  call void (ptr, i32, ptr, ...) @archive_set_error(ptr noundef %57, i32 noundef 5, ptr noundef nonnull @.str.6, ptr noundef %59) #11
  br label %60

60:                                               ; preds = %.critedge2, %55, %2
  %.0 = phi i32 [ 0, %2 ], [ -30, %55 ], [ %.1, %.critedge2 ]
  ret i32 %.0
}